target datalayout = "e-m:e-p270:32:32-p271:32:32-p272:64:64-i64:64-i128:128-f80:128-n8:16:32:64-S128"
target triple = "x86_64-pc-linux-gnu"

%struct.DdNode = type { i32, i32, ptr, %union.anon, i64 }
%union.anon = type { %struct.DdChildren }
%struct.DdChildren = type { ptr, ptr }
%struct.DdManager = type { %struct.DdNode, ptr, ptr, ptr, ptr, ptr, ptr, ptr, i32, i32, double, double, double, i32, i32, i32, i32, i32, i32, ptr, ptr, %struct.DdSubtable, i32, i32, i32, i32, i32, i32, i32, double, i32, i32, i32, ptr, i64, double, i32, ptr, ptr, ptr, ptr, ptr, ptr, ptr, i32, ptr, ptr, ptr, ptr, ptr, ptr, i32, i32, i32, double, i32, i32, i32, i32, double, double, i32, i32, i32, i32, i32, i32, i32, i32, i32, ptr, ptr, i32, i32, i32, i32, i32, i32, ptr, ptr, ptr, ptr, ptr, ptr, ptr, ptr, i32, i64, i64, i64, i32, i64, i64, double, double, double, double, double, double, i32, ptr, ptr, i64 }
%struct.DdSubtable = type { ptr, i32, i32, i32, i32, i32, i32, i32, i32, i32, i32, i32 }

; Function Attrs: nounwind uwtable
define ptr @Cudd_bddMakePrime(ptr noundef %0, ptr noundef %1, ptr noundef %2) #0 {
  %4 = alloca ptr, align 8
  %5 = alloca ptr, align 8
  %6 = alloca ptr, align 8
  %7 = alloca ptr, align 8
  %8 = alloca ptr, align 8
  %9 = alloca i32, align 4
  store ptr %0, ptr %5, align 8, !tbaa !3
  store ptr %1, ptr %6, align 8, !tbaa !8
  store ptr %2, ptr %7, align 8, !tbaa !8
  call void @llvm.lifetime.start.p0(i64 8, ptr %8) #6
  %10 = load ptr, ptr %5, align 8, !tbaa !3
  %11 = load ptr, ptr %6, align 8, !tbaa !8
  %12 = load ptr, ptr %7, align 8, !tbaa !8
  %13 = call i32 @Cudd_bddLeq(ptr noundef %10, ptr noundef %11, ptr noundef %12)
  %14 = icmp ne i32 %13, 0
  br i1 %14, label %16, label %15

15:                                               ; preds = %3
  store ptr null, ptr %4, align 8
  store i32 1, ptr %9, align 4
  br label %31

16:                                               ; preds = %3
  br label %17

17:                                               ; preds = %24, %16
  %18 = load ptr, ptr %5, align 8, !tbaa !3
  %19 = getelementptr inbounds nuw %struct.DdManager, ptr %18, i32 0, i32 55
  store i32 0, ptr %19, align 8, !tbaa !36
  %20 = load ptr, ptr %5, align 8, !tbaa !3
  %21 = load ptr, ptr %6, align 8, !tbaa !8
  %22 = load ptr, ptr %7, align 8, !tbaa !8
  %23 = call ptr @cuddBddMakePrime(ptr noundef %20, ptr noundef %21, ptr noundef %22)
  store ptr %23, ptr %8, align 8, !tbaa !8
  br label %24

24:                                               ; preds = %17
  %25 = load ptr, ptr %5, align 8, !tbaa !3
  %26 = getelementptr inbounds nuw %struct.DdManager, ptr %25, i32 0, i32 55
  %27 = load i32, ptr %26, align 8, !tbaa !36
  %28 = icmp eq i32 %27, 1
  br i1 %28, label %17, label %29, !llvm.loop !58

29:                                               ; preds = %24
  %30 = load ptr, ptr %8, align 8, !tbaa !8
  store ptr %30, ptr %4, align 8
  store i32 1, ptr %9, align 4
  br label %31

31:                                               ; preds = %29, %15
  call void @llvm.lifetime.end.p0(i64 8, ptr %8) #6
  %32 = load ptr, ptr %4, align 8
  ret ptr %32
}