; Function Attrs: nounwind uwtable
define ptr @Cudd_bddMakePrime(ptr noundef %0, ptr noundef %1, ptr noundef %2) local_unnamed_addr #2 {
  %4 = tail call i32 @Cudd_bddLeq(ptr noundef %0, ptr noundef %1, ptr noundef %2) #10
  %.not = icmp eq i32 %4, 0
  br i1 %.not, label %.loopexit, label %.preheader

.preheader:                                       ; preds = %3
  %5 = getelementptr inbounds nuw i8, ptr %0, i64 448
  br label %6

6:                                                ; preds = %.preheader, %6
  store i32 0, ptr %5, align 8, !tbaa !33
  %7 = tail call ptr @cuddBddMakePrime(ptr noundef %0, ptr noundef %1, ptr noundef %2)
  %8 = load i32, ptr %5, align 8, !tbaa !33
  %9 = icmp eq i32 %8, 1
  br i1 %9, label %6, label %.loopexit, !llvm.loop !49

.loopexit:                                        ; preds = %6, %3
  %.0 = phi ptr [ null, %3 ], [ %7, %6 ]
  ret ptr %.0
}